; Function Attrs: mustprogress nounwind uwtable
define internal fastcc noundef zeroext i1 @_ZN4node4wasi12_GLOBAL__N_110CheckTypesIjJjjjjEEEbRKN2v820FunctionCallbackInfoINS3_5ValueEEEiT_DpT0_(ptr nocapture noundef nonnull readonly align 8 dereferenceable(20) %info, i32 noundef %i) unnamed_addr #3 {
entry:
  %length_.i.i = getelementptr inbounds i8, ptr %info, i64 16
  %0 = load i32, ptr %length_.i.i, align 8
  %cmp2.i.not.i = icmp sgt i32 %0, %i
  br i1 %cmp2.i.not.i, label %if.end.i.i, label %if.then.i.i

if.then.i.i:                                      ; preds = %entry
  %1 = load ptr, ptr %info, align 8
  %arrayidx.i.i = getelementptr inbounds i8, ptr %1, i64 8
  %2 = load ptr, ptr %arrayidx.i.i, align 8
  %3 = ptrtoint ptr %2 to i64
  %add1.i.i.i = add i64 %3, 608
  %4 = inttoptr i64 %add1.i.i.i to ptr
  br label %_ZN4node4wasi12_GLOBAL__N_110CheckTypesIjEEbRKN2v820FunctionCallbackInfoINS3_5ValueEEEiT_.exit

if.end.i.i:                                       ; preds = %entry
  %values_.i.i = getelementptr inbounds i8, ptr %info, i64 8
  %5 = load ptr, ptr %values_.i.i, align 8
  %idx.ext.i.i = zext nneg i32 %i to i64
  %add.ptr.i.i = getelementptr inbounds i64, ptr %5, i64 %idx.ext.i.i
  br label %_ZN4node4wasi12_GLOBAL__N_110CheckTypesIjEEbRKN2v820FunctionCallbackInfoINS3_5ValueEEEiT_.exit

_ZN4node4wasi12_GLOBAL__N_110CheckTypesIjEEbRKN2v820FunctionCallbackInfoINS3_5ValueEEEiT_.exit: ; preds = %if.then.i.i, %if.end.i.i
  %retval.i.sroa.0.0.i = phi ptr [ %4, %if.then.i.i ], [ %add.ptr.i.i, %if.end.i.i ]
  %call3.i.i = tail call noundef zeroext i1 @_ZNK2v85Value8IsUint32Ev(ptr noundef nonnull align 1 dereferenceable(1) %retval.i.sroa.0.0.i) #24
  br i1 %call3.i.i, label %if.end, label %return

if.end:                                           ; preds = %_ZN4node4wasi12_GLOBAL__N_110CheckTypesIjEEbRKN2v820FunctionCallbackInfoINS3_5ValueEEEiT_.exit
  %add = add nuw nsw i32 %i, 1
  %6 = load i32, ptr %length_.i.i, align 8
  %cmp2.i.not.i.i = icmp sgt i32 %6, %add
  br i1 %cmp2.i.not.i.i, label %if.end.i.i.i, label %if.then.i.i.i

if.then.i.i.i:                                    ; preds = %if.end
  %7 = load ptr, ptr %info, align 8
  %arrayidx.i.i.i = getelementptr inbounds i8, ptr %7, i64 8
  %8 = load ptr, ptr %arrayidx.i.i.i, align 8
  %9 = ptrtoint ptr %8 to i64
  %add1.i.i.i.i = add i64 %9, 608
  %10 = inttoptr i64 %add1.i.i.i.i to ptr
  br label %_ZN4node4wasi12_GLOBAL__N_110CheckTypesIjEEbRKN2v820FunctionCallbackInfoINS3_5ValueEEEiT_.exit.i

if.end.i.i.i:                                     ; preds = %if.end
  %values_.i.i.i = getelementptr inbounds i8, ptr %info, i64 8
  %11 = load ptr, ptr %values_.i.i.i, align 8
  %idx.ext.i.i.i = zext nneg i32 %add to i64
  %add.ptr.i.i.i = getelementptr inbounds i64, ptr %11, i64 %idx.ext.i.i.i
  br label %_ZN4node4wasi12_GLOBAL__N_110CheckTypesIjEEbRKN2v820FunctionCallbackInfoINS3_5ValueEEEiT_.exit.i

_ZN4node4wasi12_GLOBAL__N_110CheckTypesIjEEbRKN2v820FunctionCallbackInfoINS3_5ValueEEEiT_.exit.i: ; preds = %if.end.i.i.i, %if.then.i.i.i
  %retval.i.sroa.0.0.i.i = phi ptr [ %10, %if.then.i.i.i ], [ %add.ptr.i.i.i, %if.end.i.i.i ]
  %call3.i.i.i = tail call noundef zeroext i1 @_ZNK2v85Value8IsUint32Ev(ptr noundef nonnull align 1 dereferenceable(1) %retval.i.sroa.0.0.i.i) #24
  br i1 %call3.i.i.i, label %if.end.i, label %return

if.end.i:                                         ; preds = %_ZN4node4wasi12_GLOBAL__N_110CheckTypesIjEEbRKN2v820FunctionCallbackInfoINS3_5ValueEEEiT_.exit.i
  %add.i = add nuw nsw i32 %i, 2
  %12 = load i32, ptr %length_.i.i, align 8
  %cmp2.i.not.i.i.i = icmp sgt i32 %12, %add.i
  br i1 %cmp2.i.not.i.i.i, label %if.end.i.i.i.i, label %if.then.i.i.i.i

if.then.i.i.i.i:                                  ; preds = %if.end.i
  %13 = load ptr, ptr %info, align 8
  %arrayidx.i.i.i.i = getelementptr inbounds i8, ptr %13, i64 8
  %14 = load ptr, ptr %arrayidx.i.i.i.i, align 8
  %15 = ptrtoint ptr %14 to i64
  %add1.i.i.i.i.i = add i64 %15, 608
  %16 = inttoptr i64 %add1.i.i.i.i.i to ptr
  br label %_ZN4node4wasi12_GLOBAL__N_110CheckTypesIjEEbRKN2v820FunctionCallbackInfoINS3_5ValueEEEiT_.exit.i.i

if.end.i.i.i.i:                                   ; preds = %if.end.i
  %values_.i.i.i.i = getelementptr inbounds i8, ptr %info, i64 8
  %17 = load ptr, ptr %values_.i.i.i.i, align 8
  %idx.ext.i.i.i.i = zext nneg i32 %add.i to i64
  %add.ptr.i.i.i.i = getelementptr inbounds i64, ptr %17, i64 %idx.ext.i.i.i.i
  br label %_ZN4node4wasi12_GLOBAL__N_110CheckTypesIjEEbRKN2v820FunctionCallbackInfoINS3_5ValueEEEiT_.exit.i.i

_ZN4node4wasi12_GLOBAL__N_110CheckTypesIjEEbRKN2v820FunctionCallbackInfoINS3_5ValueEEEiT_.exit.i.i: ; preds = %if.end.i.i.i.i, %if.then.i.i.i.i
  %retval.i.sroa.0.0.i.i.i = phi ptr [ %16, %if.then.i.i.i.i ], [ %add.ptr.i.i.i.i, %if.end.i.i.i.i ]
  %call3.i.i.i.i = tail call noundef zeroext i1 @_ZNK2v85Value8IsUint32Ev(ptr noundef nonnull align 1 dereferenceable(1) %retval.i.sroa.0.0.i.i.i) #24
  br i1 %call3.i.i.i.i, label %if.end.i.i3, label %return

if.end.i.i3:                                      ; preds = %_ZN4node4wasi12_GLOBAL__N_110CheckTypesIjEEbRKN2v820FunctionCallbackInfoINS3_5ValueEEEiT_.exit.i.i
  %add.i.i = add nuw nsw i32 %i, 3
  %18 = load i32, ptr %length_.i.i, align 8
  %cmp2.i.not.i.i.i.i = icmp sgt i32 %18, %add.i.i
  br i1 %cmp2.i.not.i.i.i.i, label %if.end.i.i.i.i.i, label %if.then.i.i.i.i.i

if.then.i.i.i.i.i:                                ; preds = %if.end.i.i3
  %19 = load ptr, ptr %info, align 8
  %arrayidx.i.i.i.i.i = getelementptr inbounds i8, ptr %19, i64 8
  %20 = load ptr, ptr %arrayidx.i.i.i.i.i, align 8
  %21 = ptrtoint ptr %20 to i64
  %add1.i.i.i.i.i.i = add i64 %21, 608
  %22 = inttoptr i64 %add1.i.i.i.i.i.i to ptr
  br label %_ZN4node4wasi12_GLOBAL__N_110CheckTypesIjEEbRKN2v820FunctionCallbackInfoINS3_5ValueEEEiT_.exit.i.i.i

if.end.i.i.i.i.i:                                 ; preds = %if.end.i.i3
  %values_.i.i.i.i.i = getelementptr inbounds i8, ptr %info, i64 8
  %23 = load ptr, ptr %values_.i.i.i.i.i, align 8
  %idx.ext.i.i.i.i.i = zext nneg i32 %add.i.i to i64
  %add.ptr.i.i.i.i.i = getelementptr inbounds i64, ptr %23, i64 %idx.ext.i.i.i.i.i
  br label %_ZN4node4wasi12_GLOBAL__N_110CheckTypesIjEEbRKN2v820FunctionCallbackInfoINS3_5ValueEEEiT_.exit.i.i.i

_ZN4node4wasi12_GLOBAL__N_110CheckTypesIjEEbRKN2v820FunctionCallbackInfoINS3_5ValueEEEiT_.exit.i.i.i: ; preds = %if.end.i.i.i.i.i, %if.then.i.i.i.i.i
  %retval.i.sroa.0.0.i.i.i.i = phi ptr [ %22, %if.then.i.i.i.i.i ], [ %add.ptr.i.i.i.i.i, %if.end.i.i.i.i.i ]
  %call3.i.i.i.i.i = tail call noundef zeroext i1 @_ZNK2v85Value8IsUint32Ev(ptr noundef nonnull align 1 dereferenceable(1) %retval.i.sroa.0.0.i.i.i.i) #24
  br i1 %call3.i.i.i.i.i, label %if.end.i.i3.i, label %return

if.end.i.i3.i:                                    ; preds = %_ZN4node4wasi12_GLOBAL__N_110CheckTypesIjEEbRKN2v820FunctionCallbackInfoINS3_5ValueEEEiT_.exit.i.i.i
  %add.i.i.i = add nuw nsw i32 %i, 4
  %24 = load i32, ptr %length_.i.i, align 8
  %cmp2.i.not.i4.i.i.i = icmp sgt i32 %24, %add.i.i.i
  br i1 %cmp2.i.not.i4.i.i.i, label %if.end.i.i10.i.i.i, label %if.then.i.i5.i.i.i

if.then.i.i5.i.i.i:                               ; preds = %if.end.i.i3.i
  %25 = load ptr, ptr %info, align 8
  %arrayidx.i.i6.i.i.i = getelementptr inbounds i8, ptr %25, i64 8
  %26 = load ptr, ptr %arrayidx.i.i6.i.i.i, align 8
  %27 = ptrtoint ptr %26 to i64
  %add1.i.i.i7.i.i.i = add i64 %27, 608
  %28 = inttoptr i64 %add1.i.i.i7.i.i.i to ptr
  br label %_ZN4node4wasi12_GLOBAL__N_110CheckTypesIjEEbRKN2v820FunctionCallbackInfoINS3_5ValueEEEiT_.exit14.i.i.i

if.end.i.i10.i.i.i:                               ; preds = %if.end.i.i3.i
  %values_.i.i11.i.i.i = getelementptr inbounds i8, ptr %info, i64 8
  %29 = load ptr, ptr %values_.i.i11.i.i.i, align 8
  %idx.ext.i.i12.i.i.i = zext nneg i32 %add.i.i.i to i64
  %add.ptr.i.i13.i.i.i = getelementptr inbounds i64, ptr %29, i64 %idx.ext.i.i12.i.i.i
  br label %_ZN4node4wasi12_GLOBAL__N_110CheckTypesIjEEbRKN2v820FunctionCallbackInfoINS3_5ValueEEEiT_.exit14.i.i.i

_ZN4node4wasi12_GLOBAL__N_110CheckTypesIjEEbRKN2v820FunctionCallbackInfoINS3_5ValueEEEiT_.exit14.i.i.i: ; preds = %if.end.i.i10.i.i.i, %if.then.i.i5.i.i.i
  %retval.i.sroa.0.0.i8.i.i.i = phi ptr [ %28, %if.then.i.i5.i.i.i ], [ %add.ptr.i.i13.i.i.i, %if.end.i.i10.i.i.i ]
  %call3.i.i9.i.i.i = tail call noundef zeroext i1 @_ZNK2v85Value8IsUint32Ev(ptr noundef nonnull align 1 dereferenceable(1) %retval.i.sroa.0.0.i8.i.i.i) #24
  br label %return

return:                                           ; preds = %_ZN4node4wasi12_GLOBAL__N_110CheckTypesIjEEbRKN2v820FunctionCallbackInfoINS3_5ValueEEEiT_.exit14.i.i.i, %_ZN4node4wasi12_GLOBAL__N_110CheckTypesIjEEbRKN2v820FunctionCallbackInfoINS3_5ValueEEEiT_.exit.i.i.i, %_ZN4node4wasi12_GLOBAL__N_110CheckTypesIjEEbRKN2v820FunctionCallbackInfoINS3_5ValueEEEiT_.exit.i.i, %_ZN4node4wasi12_GLOBAL__N_110CheckTypesIjEEbRKN2v820FunctionCallbackInfoINS3_5ValueEEEiT_.exit.i, %_ZN4node4wasi12_GLOBAL__N_110CheckTypesIjEEbRKN2v820FunctionCallbackInfoINS3_5ValueEEEiT_.exit
  %retval.0 = phi i1 [ false, %_ZN4node4wasi12_GLOBAL__N_110CheckTypesIjEEbRKN2v820FunctionCallbackInfoINS3_5ValueEEEiT_.exit ], [ false, %_ZN4node4wasi12_GLOBAL__N_110CheckTypesIjEEbRKN2v820FunctionCallbackInfoINS3_5ValueEEEiT_.exit.i ], [ false, %_ZN4node4wasi12_GLOBAL__N_110CheckTypesIjEEbRKN2v820FunctionCallbackInfoINS3_5ValueEEEiT_.exit.i.i ], [ %call3.i.i9.i.i.i, %_ZN4node4wasi12_GLOBAL__N_110CheckTypesIjEEbRKN2v820FunctionCallbackInfoINS3_5ValueEEEiT_.exit14.i.i.i ], [ false, %_ZN4node4wasi12_GLOBAL__N_110CheckTypesIjEEbRKN2v820FunctionCallbackInfoINS3_5ValueEEEiT_.exit.i.i.i ]
  ret i1 %retval.0
}